ASxxxx Linker V03.00 + NoICE + sdld,  page 1.
Hexadecimal  [32-Bits]

Area                                    Addr        Size        Decimal Bytes (Attributes)
--------------------------------        ----        ----        ------- ----- ------------
.  .ABS.                            00000000    00000000 =           0. bytes (ABS,CON)

      Value  Global                              Global Defined In Module
      -----  --------------------------------   ------------------------
     00000000  .__.ABS.                           cpct_strings
     00000000  l__CABS                         
     00000000  l__DABS                         
     00000000  l__DATA                         
     00000000  l__GSFINAL                      
     00000000  l__GSINIT                       
     00000000  l__HOME                         
     00000000  l__INITIALIZED                  
     00000000  l__INITIALIZER                  
     00000000  s__CABS                         
     00000000  s__DABS                         
     000003C0  l__CODE                         
     00004000  s__CODE                         
     000043C0  s__DATA                         
     000043C0  s__GSFINAL                      
     000043C0  s__GSINIT                       
     000043C0  s__HOME                         
     000043C0  s__INITIALIZED                  
     000043C0  s__INITIALIZER                  

ASxxxx Linker V03.00 + NoICE + sdld,  page 2.
Hexadecimal  [32-Bits]

Area                                    Addr        Size        Decimal Bytes (Attributes)
--------------------------------        ----        ----        ------- ----- ------------
_CODE                               00004000    000003C0 =         960. bytes (REL,CON)

      Value  Global                              Global Defined In Module
      -----  --------------------------------   ------------------------
     00004000  _sp_blocks_0                       blocks
     00004015  _sp_blocks_1                       blocks
     0000402A  _sp_blocks_2                       blocks
     0000403F  _sp_rightPills_0                   rightPills
     00004054  _sp_rightPills_1                   rightPills
     00004069  _sp_rightPills_2                   rightPills
     0000407E  _sp_leftPills_0                    leftPills
     00004093  _sp_leftPills_1                    leftPills
     000040A8  _sp_leftPills_2                    leftPills
     000040BD  _sp_downPills_0                    downPills
     000040D2  _sp_downPills_1                    downPills
     000040E7  _sp_downPills_2                    downPills
     000040FC  _sp_palette                        upPills
     0000410C  _sp_upPills_0                      upPills
     00004121  _sp_upPills_1                      upPills
     00004136  _sp_upPills_2                      upPills
     000042A4  _main                              cpct_keyboard
     000042DB  _cpct_isKeyPressed                 cpct_keyboard
     000042DB  cpct_isKeyPressed_asm              cpct_keyboard
     000042E7  cpct_setPalette_asm                cpct_video
     000042FA  _cpct_keyboardStatusBuffer         cpct_keyboard
     00004304  cpct_setVideoMode_asm              cpct_video
     00004311  cpct_px2byteM0_asm                 cpct_sprites
     0000432B  _cpct_disableFirmware              cpct_firmware
     0000432B  _cpct_removeInterruptHandler       cpct_firmware
     0000432B  cpct_disableFirmware_asm           cpct_firmware
     0000432B  cpct_removeInterruptHandler_asm    cpct_firmware
     0000433B  cpct_drawSpriteBlended_asm         cpct_sprites
     00004341  _cpct_dsb_blendFunction            cpct_sprites
     00004362  _cpct_mode_rom_status              cpct_firmware
     00004363  cpct_getScreenPtr_asm              cpct_video
     0000437F  _cpct_scanKeyboard                 cpct_keyboard
     0000437F  cpct_scanKeyboard_asm              cpct_keyboard
     000043B0  dc_mode0_ct                        cpct_strings

ASxxxx Linker V03.00 + NoICE + sdld,  page 3.

Files Linked                              [ module(s) ]

obj/sprites/blocks.rel                    [ blocks ]
obj/sprites/rightPills.rel                [ rightPills ]
obj/sprites/leftPills.rel                 [ leftPills ]
obj/sprites/downPills.rel                 [ downPills ]
obj/sprites/upPills.rel                   [ upPills ]
obj/main.rel                              [ cpct_keyboard ]
obj/main.h.rel                            [  ]


Libraries Linked                          [ object file ]

/home/cabox/workspace/cpctelera/cpctelera/cpctelera.lib
                                          [ cpct_isKeyPressed.rel ]
/home/cabox/workspace/cpctelera/cpctelera/cpctelera.lib
                                          [ cpct_setPalette_asmbindings.rel ]
/home/cabox/workspace/cpctelera/cpctelera/cpctelera.lib
                                          [ keyboard.rel ]
/home/cabox/workspace/cpctelera/cpctelera/cpctelera.lib
                                          [ cpct_setVideoMode_asmbindings.re ]
/home/cabox/workspace/cpctelera/cpctelera/cpctelera.lib
                                          [ cpct_px2byteM0_asmbindings.rel ]
/home/cabox/workspace/cpctelera/cpctelera/cpctelera.lib
                                          [ cpct_removeInterruptHandler.rel ]
/home/cabox/workspace/cpctelera/cpctelera/cpctelera.lib
                                          [ cpct_drawSpriteBlended_asmbindin ]
/home/cabox/workspace/cpctelera/cpctelera/cpctelera.lib
                                          [ cpc_mode_rom_status.rel ]
/home/cabox/workspace/cpctelera/cpctelera/cpctelera.lib
                                          [ cpct_getScreenPtr_asmbindings.re ]
/home/cabox/workspace/cpctelera/cpctelera/cpctelera.lib
                                          [ cpct_scanKeyboard.rel ]
/home/cabox/workspace/cpctelera/cpctelera/cpctelera.lib
                                          [ cpct_dc_mode0_ct.rel ]

ASxxxx Linker V03.00 + NoICE + sdld,  page 4.

User Base Address Definitions

_CODE = 0x4000
_DATA = 0x0000

